target datalayout = "e-m:e-p270:32:32-p271:32:32-p272:64:64-i64:64-i128:128-f80:128-n8:16:32:64-S128"
target triple = "x86_64-pc-linux-gnu"

%struct.dt_pthread_mutex_t = type { %union.pthread_mutex_t }
%union.pthread_mutex_t = type { %struct.__pthread_mutex_s }
%struct.__pthread_mutex_s = type { i32, i32, i32, i32, i32, i16, i16, %struct.__pthread_internal_list }
%struct.__pthread_internal_list = type { ptr, ptr }
%struct.dt_mipmap_cache_t = type { [11 x i32], [11 x i32], [11 x i64], %struct.dt_mipmap_cache_one_t, %struct.dt_mipmap_cache_one_t, %struct.dt_mipmap_cache_one_t, [4096 x i8] }
%struct.dt_mipmap_cache_one_t = type { %struct.dt_cache_t, i64, i64, i64, i64, i64 }
%struct.dt_cache_t = type { %struct.dt_pthread_mutex_t, i64, i64, i64, ptr, ptr, ptr, ptr, ptr, ptr }

; Function Attrs: nounwind uwtable
define internal ptr @_get_cache(ptr noundef %0, i32 noundef %1) #0 {
  %3 = alloca ptr, align 8
  %4 = alloca ptr, align 8
  %5 = alloca i32, align 4
  store ptr %0, ptr %4, align 8, !tbaa !50
  store i32 %1, ptr %5, align 4, !tbaa !43
  %6 = load i32, ptr %5, align 4, !tbaa !43
  switch i32 %6, label %13 [
    i32 10, label %7
    i32 9, label %10
  ]

7:                                                ; preds = %2
  %8 = load ptr, ptr %4, align 8, !tbaa !50
  %9 = getelementptr inbounds nuw %struct.dt_mipmap_cache_t, ptr %8, i32 0, i32 5
  store ptr %9, ptr %3, align 8
  br label %16

10:                                               ; preds = %2
  %11 = load ptr, ptr %4, align 8, !tbaa !50
  %12 = getelementptr inbounds nuw %struct.dt_mipmap_cache_t, ptr %11, i32 0, i32 4
  store ptr %12, ptr %3, align 8
  br label %16

13:                                               ; preds = %2
  %14 = load ptr, ptr %4, align 8, !tbaa !50
  %15 = getelementptr inbounds nuw %struct.dt_mipmap_cache_t, ptr %14, i32 0, i32 3
  store ptr %15, ptr %3, align 8
  br label %16

16:                                               ; preds = %13, %10, %7
  %17 = load ptr, ptr %3, align 8
  ret ptr %17
}

; Function Attrs: inlinehint nounwind uwtable
define internal i32 @get_key(i32 noundef %0, i32 noundef %1) #4 {
  %3 = alloca i32, align 4
  %4 = alloca i32, align 4
  store i32 %0, ptr %3, align 4, !tbaa !43
  store i32 %1, ptr %4, align 4, !tbaa !43
  %5 = load i32, ptr %4, align 4, !tbaa !43
  %6 = shl i32 %5, 28
  %7 = load i32, ptr %3, align 4, !tbaa !43
  %8 = sub nsw i32 %7, 1
  %9 = and i32 %8, 268435455
  %10 = or i32 %6, %9
  ret i32 %10
}

; Function Attrs: nounwind uwtable
define void @dt_mipmap_cache_evict_at_size(ptr noundef %0, i32 noundef %1, i32 noundef %2) #0 {
  %4 = alloca ptr, align 8
  %5 = alloca i32, align 4
  %6 = alloca i32, align 4
  %7 = alloca i32, align 4
  store ptr %0, ptr %4, align 8, !tbaa !50
  store i32 %1, ptr %5, align 4, !tbaa !43
  store i32 %2, ptr %6, align 4, !tbaa !43
  call void @llvm.lifetime.start.p0(i64 4, ptr %7) #12
  %8 = load i32, ptr %5, align 4, !tbaa !43
  %9 = load i32, ptr %6, align 4, !tbaa !43
  %10 = call i32 @get_key(i32 noundef %8, i32 noundef %9)
  store i32 %10, ptr %7, align 4, !tbaa !43
  %11 = load ptr, ptr %4, align 8, !tbaa !50
  %12 = load i32, ptr %6, align 4, !tbaa !43
  %13 = call ptr @_get_cache(ptr noundef %11, i32 noundef %12)
  %14 = getelementptr inbounds nuw %struct.dt_mipmap_cache_one_t, ptr %13, i32 0, i32 0
  %15 = load i32, ptr %7, align 4, !tbaa !43
  %16 = call i32 @dt_cache_remove(ptr noundef %14, i32 noundef %15)
  call void @llvm.lifetime.end.p0(i64 4, ptr %7) #12
  ret void
}