; Function Attrs: nounwind uwtable
define void @dt_mipmap_cache_evict_at_size(ptr noundef %0, i32 noundef %1, i32 noundef %2) local_unnamed_addr #3 {
  %4 = shl i32 %2, 28
  %5 = add i32 %1, 268435455
  %6 = and i32 %5, 268435455
  %7 = or disjoint i32 %4, %6
  %switch.selectcmp.i = icmp eq i32 %2, 9
  %switch.select.i = select i1 %switch.selectcmp.i, i64 328, i64 176
  %switch.selectcmp4.i = icmp eq i32 %2, 10
  %switch.select5.i = select i1 %switch.selectcmp4.i, i64 480, i64 %switch.select.i
  %8 = getelementptr inbounds nuw i8, ptr %0, i64 %switch.select5.i
  %9 = tail call i32 @dt_cache_remove(ptr noundef nonnull %8, i32 noundef %7) #19
  ret void
}